; Function Attrs: mustprogress nounwind uwtable
define internal fastcc void @_ZN12_GLOBAL__N_111StmtPrinter19VisitSizeOfPackExprEPN5clang14SizeOfPackExprE(ptr %.0.val, ptr noundef readonly captures(none) %0) unnamed_addr #0 align 2 {
  %2 = getelementptr inbounds nuw i8, ptr %.0.val, i64 24
  %3 = load ptr, ptr %2, align 8
  %4 = getelementptr inbounds nuw i8, ptr %.0.val, i64 32
  %5 = load ptr, ptr %4, align 8
  %6 = ptrtoint ptr %3 to i64
  %7 = ptrtoint ptr %5 to i64
  %8 = sub i64 %6, %7
  %9 = icmp ult i64 %8, 10
  br i1 %9, label %10, label %12

10:                                               ; preds = %1
  %11 = tail call noundef nonnull align 8 dereferenceable(48) ptr @_ZN4llvm11raw_ostream5writeEPKcm(ptr noundef nonnull align 8 dereferenceable(48) %.0.val, ptr noundef nonnull @.str.33, i64 noundef 10) #19
  br label %_ZN4llvm11raw_ostreamlsEPKc.exit

12:                                               ; preds = %1
  tail call void @llvm.memcpy.p0.p0.i64(ptr noundef nonnull align 1 dereferenceable(10) %5, ptr noundef nonnull align 1 dereferenceable(10) @.str.33, i64 10, i1 false)
  %13 = load ptr, ptr %4, align 8
  %14 = getelementptr inbounds nuw i8, ptr %13, i64 10
  store ptr %14, ptr %4, align 8
  br label %_ZN4llvm11raw_ostreamlsEPKc.exit

_ZN4llvm11raw_ostreamlsEPKc.exit:                 ; preds = %10, %12
  %.0.i.i = phi ptr [ %11, %10 ], [ %.0.val, %12 ]
  %15 = getelementptr inbounds nuw i8, ptr %0, i64 32
  %16 = load ptr, ptr %15, align 8
  tail call void @_ZNK5clang9NamedDecl9printNameERN4llvm11raw_ostreamE(ptr noundef nonnull align 8 dereferenceable(48) %16, ptr noundef nonnull align 8 dereferenceable(48) %.0.i.i) #19
  %17 = getelementptr inbounds nuw i8, ptr %.0.i.i, i64 24
  %18 = load ptr, ptr %17, align 8
  %19 = getelementptr inbounds nuw i8, ptr %.0.i.i, i64 32
  %20 = load ptr, ptr %19, align 8
  %21 = icmp eq ptr %18, %20
  br i1 %21, label %22, label %24

22:                                               ; preds = %_ZN4llvm11raw_ostreamlsEPKc.exit
  %23 = tail call noundef nonnull align 8 dereferenceable(48) ptr @_ZN4llvm11raw_ostream5writeEPKcm(ptr noundef nonnull align 8 dereferenceable(48) %.0.i.i, ptr noundef nonnull @.str.2, i64 noundef 1) #19
  br label %_ZN4llvm11raw_ostreamlsEPKc.exit4

24:                                               ; preds = %_ZN4llvm11raw_ostreamlsEPKc.exit
  store i8 41, ptr %20, align 1
  %25 = load ptr, ptr %19, align 8
  %26 = getelementptr inbounds nuw i8, ptr %25, i64 1
  store ptr %26, ptr %19, align 8
  br label %_ZN4llvm11raw_ostreamlsEPKc.exit4

_ZN4llvm11raw_ostreamlsEPKc.exit4:                ; preds = %22, %24
  ret void
}